target datalayout = "e-m:e-p270:32:32-p271:32:32-p272:64:64-i64:64-i128:128-f80:128-n8:16:32:64-S128"
target triple = "x86_64-pc-linux-gnu"

%class.floatbuffer = type { ptr, i32, i32, i32, %class.QString }
%class.QString = type { ptr }

; Function Attrs: mustprogress nounwind uwtable
define noundef float @_ZN11floatbuffer6getvalEii(ptr noundef nonnull align 8 dereferenceable(32) %0, i32 noundef %1, i32 noundef %2) #4 align 2 {
  %4 = alloca float, align 4
  %5 = alloca ptr, align 8
  %6 = alloca i32, align 4
  %7 = alloca i32, align 4
  store ptr %0, ptr %5, align 8
  store i32 %1, ptr %6, align 4
  store i32 %2, ptr %7, align 4
  %8 = load ptr, ptr %5, align 8
  %9 = getelementptr inbounds %class.floatbuffer, ptr %8, i32 0, i32 3
  %10 = load i32, ptr %9, align 8
  %11 = icmp ne i32 %10, 0
  br i1 %11, label %13, label %12

12:                                               ; preds = %3
  store float -1.000000e+00, ptr %4, align 4
  br label %42

13:                                               ; preds = %3
  %14 = load i32, ptr %6, align 4
  %15 = icmp slt i32 %14, 0
  br i1 %15, label %29, label %16

16:                                               ; preds = %13
  %17 = load i32, ptr %7, align 4
  %18 = icmp slt i32 %17, 0
  br i1 %18, label %29, label %19

19:                                               ; preds = %16
  %20 = load i32, ptr %6, align 4
  %21 = getelementptr inbounds %class.floatbuffer, ptr %8, i32 0, i32 1
  %22 = load i32, ptr %21, align 8
  %23 = icmp sge i32 %20, %22
  br i1 %23, label %29, label %24

24:                                               ; preds = %19
  %25 = load i32, ptr %7, align 4
  %26 = getelementptr inbounds %class.floatbuffer, ptr %8, i32 0, i32 2
  %27 = load i32, ptr %26, align 4
  %28 = icmp sge i32 %25, %27
  br i1 %28, label %29, label %30

29:                                               ; preds = %24, %19, %16, %13
  store float 0.000000e+00, ptr %4, align 4
  br label %42

30:                                               ; preds = %24
  %31 = getelementptr inbounds %class.floatbuffer, ptr %8, i32 0, i32 0
  %32 = load ptr, ptr %31, align 8
  %33 = load i32, ptr %7, align 4
  %34 = getelementptr inbounds %class.floatbuffer, ptr %8, i32 0, i32 1
  %35 = load i32, ptr %34, align 8
  %36 = mul nsw i32 %33, %35
  %37 = load i32, ptr %6, align 4
  %38 = add nsw i32 %36, %37
  %39 = sext i32 %38 to i64
  %40 = getelementptr inbounds float, ptr %32, i64 %39
  %41 = load float, ptr %40, align 4
  store float %41, ptr %4, align 4
  br label %42

42:                                               ; preds = %30, %29, %12
  %43 = load float, ptr %4, align 4
  ret float %43
}