; Function Attrs: mustprogress nofree norecurse nosync nounwind willreturn memory(read, inaccessiblemem: none) uwtable
define noundef float @_ZN11floatbuffer6getvalEii(ptr nocapture noundef nonnull readonly align 8 dereferenceable(32) %0, i32 noundef %1, i32 noundef %2) local_unnamed_addr #14 align 2 {
  %4 = getelementptr inbounds i8, ptr %0, i64 16
  %5 = load i32, ptr %4, align 8
  %.not = icmp eq i32 %5, 0
  br i1 %.not, label %20, label %6

6:                                                ; preds = %3
  %7 = or i32 %2, %1
  %or.cond.not = icmp sgt i32 %7, -1
  br i1 %or.cond.not, label %8, label %20

8:                                                ; preds = %6
  %9 = getelementptr inbounds i8, ptr %0, i64 8
  %10 = load i32, ptr %9, align 8
  %.not11 = icmp sgt i32 %10, %1
  %11 = getelementptr inbounds i8, ptr %0, i64 12
  %12 = load i32, ptr %11, align 4
  %.not12 = icmp sgt i32 %12, %2
  %or.cond = select i1 %.not11, i1 %.not12, i1 false
  br i1 %or.cond, label %13, label %20

13:                                               ; preds = %8
  %14 = load ptr, ptr %0, align 8
  %15 = mul nsw i32 %10, %2
  %16 = add nsw i32 %15, %1
  %17 = sext i32 %16 to i64
  %18 = getelementptr inbounds float, ptr %14, i64 %17
  %19 = load float, ptr %18, align 4
  br label %20

20:                                               ; preds = %6, %8, %3, %13
  %.0 = phi float [ %19, %13 ], [ -1.000000e+00, %3 ], [ 0.000000e+00, %8 ], [ 0.000000e+00, %6 ]
  ret float %.0
}